Certificate:
    Data:
        Version: 3 (0x2)
        Serial Number:
            ae:9b:8a:ce:68:e5:37:cb:d0:fc:d3:31:73:eb:c3:9f
    Signature Algorithm: sha256WithRSAEncryption
        Issuer: CN=OpenVPN test server
        Validity
            Not Before: Mar 29 09:14:20 2016 GMT
            Not After : Mar 27 09:14:20 2026 GMT
        Subject: CN=client
        Subject Public Key Info:
            Public Key Algorithm: rsaEncryption
                Public-Key: (2048 bit)
                Modulus:
                    00:be:29:8a:53:5e:cb:c9:c5:d4:73:80:d3:95:35:
                    05:01:92:15:63:40:6e:7c:f3:c1:83:d8:48:c7:33:
                    b8:3a:01:9f:a9:5d:1f:75:65:aa:d5:e9:b4:da:23:
                    1f:df:a9:19:dc:ce:9e:40:f8:f6:ef:3b:c0:ee:02:
                    d1:09:3d:86:a2:9a:5e:b8:11:2b:d6:e4:eb:0f:9f:
                    50:1a:a5:ce:14:76:c9:3f:47:8c:64:94:57:21:7c:
                    86:95:a3:ee:15:de:a9:83:85:2c:b2:c6:07:24:05:
                    2c:9c:db:95:ce:71:c1:ad:d3:94:64:eb:90:91:b4:
                    1c:86:e4:a0:9e:0a:82:03:a8:fd:ce:68:5c:2c:07:
                    80:96:ca:c6:aa:10:63:51:98:31:a4:d6:67:c4:10:
                    92:32:99:f7:56:63:bb:76:ed:8e:c5:70:10:2a:1a:
                    60:3f:13:09:3f:5b:78:9c:88:35:0f:49:1f:a4:bf:
                    0c:29:52:3e:e4:a1:21:fc:93:e1:7b:09:55:6d:15:
                    c7:90:94:9e:61:d3:00:e8:8f:66:cd:c9:d5:e4:c9:
                    5c:1a:c7:26:34:1d:c8:1c:16:57:d2:ba:54:99:de:
                    cd:31:8f:3b:17:6f:d3:83:4d:5b:20:57:4f:99:36:
                    92:6c:cd:51:93:f8:66:de:d1:57:0c:f1:7c:73:ff:
                    7d:57
                Exponent: 65537 (0x10001)
        X509v3 extensions:
            X509v3 Basic Constraints: 
                CA:FALSE
            X509v3 Subject Key Identifier: 
                1E:5F:88:44:AE:37:D4:D3:CF:D0:B2:F6:80:2E:CB:DE:9D:A6:18:6B
            X509v3 Authority Key Identifier: 
                keyid:DD:53:E0:1A:BB:D1:64:4F:46:24:DB:95:9A:DA:3D:7F:50:1A:E4:E2
                DirName:/CN=OpenVPN test server
                serial:9D:22:90:B7:18:9D:06:71

            X509v3 Extended Key Usage: 
                TLS Web Client Authentication
            X509v3 Key Usage: 
                Digital Signature
    Signature Algorithm: sha256WithRSAEncryption
         93:b7:a5:79:bd:f1:b7:23:a4:15:d0:0e:31:66:90:ca:f2:d8:
         94:ae:e6:f1:73:94:6d:be:2c:d2:99:a3:1e:c7:66:d6:6e:ff:
         b3:e9:c1:ff:07:d1:fe:77:61:ac:b4:70:70:63:61:ed:07:f6:
         50:cd:35:7f:f2:45:89:46:23:04:84:47:eb:fb:73:a0:73:95:
         a8:d3:b1:31:f1:6a:1d:63:9b:a1:38:92:c5:7f:78:c2:33:f8:
         da:30:0a:b8:b4:03:8e:9d:5a:60:77:08:16:75:14:2b:1c:a1:
         5f:c8:59:f1:53:ed:14:90:aa:8e:bd:ad:0b:f5:21:20:1b:f4:
         8a:a8:5e:54:8a:fd:c6:a6:08:e4:d5:90:4a:db:77:03:a9:0c:
         37:ee:20:9f:00:15:65:35:05:fd:0c:6b:ae:31:92:e3:a0:19:
         a6:5e:e0:ee:a9:ee:b4:68:9e:6e:dc:52:cc:be:af:f0:5a:ea:
         ab:01:1d:23:2b:8e:cd:1c:90:24:87:d5:11:8c:41:79:55:f1:
         d2:fa:2b:1c:d6:c7:20:2b:7f:70:27:53:c6:29:31:c3:32:8f:
         50:9e:43:46:db:8a:8d:b5:bc:c9:d7:ba:bf:c7:4c:13:03:3c:
         5d:41:bd:83:8f:ba:a7:04:7f:72:57:8f:a6:03:6e:25:0c:83:
         e1:29:02:6f
-----BEGIN CERTIFICATE-----
MIIDWjCCAkKgAwIBAgIRAK6bis5o5TfL0PzTMXPrw58wDQYJKoZIhvcNAQELBQAw
HjEcMBoGA1UEAxMTT3BlblZQTiB0ZXN0IHNlcnZlcjAeFw0xNjAzMjkwOTE0MjBa
Fw0yNjAzMjcwOTE0MjBaMBExDzANBgNVBAMTBmNsaWVudDCCASIwDQYJKoZIhvcN
AQEBBQADggEPADCCAQoCggEBAL4pilNey8nF1HOA05U1BQGSFWNAbnzzwYPYSMcz
uDoBn6ldH3VlqtXptNojH9+pGdzOnkD49u87wO4C0Qk9hqKaXrgRK9bk6w+fUBql
zhR2yT9HjGSUVyF8hpWj7hXeqYOFLLLGByQFLJzblc5xwa3TlGTrkJG0HIbkoJ4K
ggOo/c5oXCwHgJbKxqoQY1GYMaTWZ8QQkjKZ91Zju3btjsVwECoaYD8TCT9beJyI
NQ9JH6S/DClSPuShIfyT4XsJVW0Vx5CUnmHTAOiPZs3J1eTJXBrHJjQdyBwWV9K6
VJnezTGPOxdv04NNWyBXT5k2kmzNUZP4Zt7RVwzxfHP/fVcCAwEAAaOBnzCBnDAJ
BgNVHRMEAjAAMB0GA1UdDgQWBBQeX4hErjfU08/QsvaALsvenaYYazBOBgNVHSME
RzBFgBTdU+Aau9FkT0Yk25Wa2j1/UBrk4qEipCAwHjEcMBoGA1UEAxMTT3BlblZQ
TiB0ZXN0IHNlcnZlcoIJAJ0ikLcYnQZxMBMGA1UdJQQMMAoGCCsGAQUFBwMCMAsG
A1UdDwQEAwIHgDANBgkqhkiG9w0BAQsFAAOCAQEAk7eleb3xtyOkFdAOMWaQyvLY
lK7m8XOUbb4s0pmjHsdm1m7/s+nB/wfR/ndhrLRwcGNh7Qf2UM01f/JFiUYjBIRH
6/tzoHOVqNOxMfFqHWOboTiSxX94wjP42jAKuLQDjp1aYHcIFnUUKxyhX8hZ8VPt
FJCqjr2tC/UhIBv0iqheVIr9xqYI5NWQStt3A6kMN+4gnwAVZTUF/QxrrjGS46AZ
pl7g7qnutGiebtxSzL6v8FrqqwEdIyuOzRyQJIfVEYxBeVXx0vorHNbHICt/cCdT
xikxwzKPUJ5DRtuKjbW8yde6v8dMEwM8XUG9g4+6pwR/clePpgNuJQyD4SkCbw==
-----END CERTIFICATE-----
