Certificate:
    Data:
        Version: 3 (0x2)
        Serial Number: 2 (0x2)
        Signature Algorithm: sha256WithRSAEncryption
        Issuer: CN=Easy-RSA CA
        Validity
            Not Before: May 16 14:30:31 2016 GMT
            Not After : May 14 14:30:31 2026 GMT
        Subject: CN=client
        Subject Public Key Info:
            Public Key Algorithm: rsaEncryption
            RSA Public Key: (2048 bit)
                Modulus (2048 bit):
                    00:e8:8e:89:ac:ec:60:cf:bd:b1:60:1e:37:b6:a3:
                    f7:93:31:9b:08:2f:84:74:9f:d9:79:6b:11:f4:c0:
                    ff:f0:47:8e:c6:94:91:0b:e8:9d:48:53:9b:a6:e8:
                    1d:cf:b0:aa:47:18:74:3b:dc:89:1e:5a:7e:a0:91:
                    31:84:d5:b5:20:90:10:a6:a8:6b:72:8d:29:b1:38:
                    40:ca:1b:54:8f:c8:dc:a9:79:11:39:8b:ae:5b:c0:
                    be:4d:88:9c:4e:10:e3:2e:65:22:ee:af:24:94:13:
                    27:39:80:13:07:89:1d:0c:40:41:53:47:a1:91:23:
                    6d:fc:23:e2:82:3a:d3:0e:b7:3c:97:d3:41:17:c5:
                    f3:e1:f3:0f:48:4b:79:2e:dd:87:45:b8:19:39:7c:
                    24:dc:14:a7:40:82:ba:9e:fb:c3:8e:08:2d:2e:ab:
                    55:37:46:01:c3:cb:1a:86:7c:2e:b7:cf:5b:27:d2:
                    40:af:6c:35:23:0e:73:ac:e0:5d:5a:d6:b1:ee:f9:
                    a5:bf:84:78:39:d4:e2:2f:6b:f2:83:88:00:3d:39:
                    c7:f5:21:53:1a:ef:a4:4b:af:53:0c:44:af:06:b0:
                    40:1f:a9:97:ef:8c:05:f1:b7:41:96:fc:99:7b:e0:
                    e7:16:9d:b2:ec:58:0f:9f:82:b4:61:87:3a:02:99:
                    70:45
                Exponent: 65537 (0x10001)
        X509v3 extensions:
            X509v3 Basic Constraints: 
                CA:FALSE
            X509v3 Subject Key Identifier: 
                ED:61:AB:91:91:8E:85:16:CC:B6:E2:41:4B:35:18:0A:4F:F0:64:08
            X509v3 Authority Key Identifier: 
                keyid:70:95:9B:27:4D:46:61:DA:7C:04:22:01:06:17:93:2B:58:1C:8E:F8
                DirName:/CN=Easy-RSA CA
                serial:91:92:63:C3:EF:EB:C8:68

            X509v3 Extended Key Usage: 
                TLS Web Client Authentication
            X509v3 Key Usage: 
                Digital Signature
    Signature Algorithm: sha256WithRSAEncryption
        58:49:63:38:cc:3d:2e:85:f7:1e:ef:4e:cc:1d:6c:8c:5d:ad:
        06:d8:dd:cf:94:05:2d:04:4a:3e:e7:ea:aa:07:42:49:12:87:
        e2:96:c6:f0:96:57:ae:a1:1e:cc:88:6e:ce:89:72:d2:a7:cc:
        07:e6:45:28:72:60:0b:16:04:db:37:10:fe:42:27:0a:ab:d6:
        ce:fc:0d:24:61:6e:9f:c8:78:9e:79:02:17:e9:72:dc:e7:08:
        4f:e4:dd:f8:61:28:98:a8:43:6b:d7:4c:e5:d4:ba:5c:4d:30:
        50:05:f3:d3:d6:c7:25:62:78:09:1b:5f:93:34:29:a5:6d:5c:
        32:b0:b6:72:11:80:7c:bf:b9:50:34:05:75:db:bf:7d:23:04:
        e4:7e:7d:9f:d3:8d:f3:78:4b:d6:1e:36:4c:06:c8:6c:a3:06:
        b9:16:70:23:51:07:21:02:de:14:fa:9e:ed:0b:e8:36:3c:15:
        d4:42:45:e7:f0:cc:86:df:8b:a9:ad:4a:60:c1:f1:5a:04:0d:
        86:3a:07:08:6a:e8:1f:8b:44:d0:41:db:25:36:37:48:d9:11:
        82:a8:c4:2f:36:43:c0:c4:20:04:c7:41:8e:9b:4e:82:dc:09:
        c2:82:0a:01:f1:3a:52:23:b5:7e:de:2b:c8:0c:58:a2:76:22:
        bd:ac:3e:0c
-----BEGIN CERTIFICATE-----
MIIDOjCCAiKgAwIBAgIBAjANBgkqhkiG9w0BAQsFADAWMRQwEgYDVQQDDAtFYXN5
LVJTQSBDQTAeFw0xNjA1MTYxNDMwMzFaFw0yNjA1MTQxNDMwMzFaMBExDzANBgNV
BAMMBmNsaWVudDCCASIwDQYJKoZIhvcNAQEBBQADggEPADCCAQoCggEBAOiOiazs
YM+9sWAeN7aj95MxmwgvhHSf2XlrEfTA//BHjsaUkQvonUhTm6boHc+wqkcYdDvc
iR5afqCRMYTVtSCQEKaoa3KNKbE4QMobVI/I3Kl5ETmLrlvAvk2InE4Q4y5lIu6v
JJQTJzmAEweJHQxAQVNHoZEjbfwj4oI60w63PJfTQRfF8+HzD0hLeS7dh0W4GTl8
JNwUp0CCup77w44ILS6rVTdGAcPLGoZ8LrfPWyfSQK9sNSMOc6zgXVrWse75pb+E
eDnU4i9r8oOIAD05x/UhUxrvpEuvUwxErwawQB+pl++MBfG3QZb8mXvg5xadsuxY
D5+CtGGHOgKZcEUCAwEAAaOBlzCBlDAJBgNVHRMEAjAAMB0GA1UdDgQWBBTtYauR
kY6FFsy24kFLNRgKT/BkCDBGBgNVHSMEPzA9gBRwlZsnTUZh2nwEIgEGF5MrWByO
+KEapBgwFjEUMBIGA1UEAwwLRWFzeS1SU0EgQ0GCCQCRkmPD7+vIaDATBgNVHSUE
DDAKBggrBgEFBQcDAjALBgNVHQ8EBAMCB4AwDQYJKoZIhvcNAQELBQADggEBAFhJ
YzjMPS6F9x7vTswdbIxdrQbY3c+UBS0ESj7n6qoHQkkSh+KWxvCWV66hHsyIbs6J
ctKnzAfmRShyYAsWBNs3EP5CJwqr1s78DSRhbp/IeJ55AhfpctznCE/k3fhhKJio
Q2vXTOXUulxNMFAF89PWxyVieAkbX5M0KaVtXDKwtnIRgHy/uVA0BXXbv30jBOR+
fZ/TjfN4S9YeNkwGyGyjBrkWcCNRByEC3hT6nu0L6DY8FdRCRefwzIbfi6mtSmDB
8VoEDYY6Bwhq6B+LRNBB2yU2N0jZEYKoxC82Q8DEIATHQY6bToLcCcKCCgHxOlIj
tX7eK8gMWKJ2Ir2sPgw=
-----END CERTIFICATE-----
