Certificate:
    Data:
        Version: 3 (0x2)
        Serial Number: 1 (0x1)
        Signature Algorithm: sha256WithRSAEncryption
        Issuer: CN=Easy-RSA CA
        Validity
            Not Before: May 16 14:29:56 2016 GMT
            Not After : May 14 14:29:56 2026 GMT
        Subject: CN=server
        Subject Public Key Info:
            Public Key Algorithm: rsaEncryption
            RSA Public Key: (2048 bit)
                Modulus (2048 bit):
                    00:a4:ef:ca:10:71:95:23:a7:73:0d:05:b9:6a:ec:
                    0f:63:4a:e4:a4:22:77:a4:90:d4:24:40:95:19:43:
                    09:63:5a:a4:85:41:0f:3a:bc:6d:5c:87:35:28:ca:
                    6f:69:f5:f6:40:b7:84:53:33:27:6a:65:a2:06:ee:
                    7d:17:57:44:6a:59:3c:76:a3:80:11:5e:d7:0a:4f:
                    23:ab:85:bf:c2:c6:89:36:ac:37:c5:3c:12:8c:4c:
                    6e:9c:80:16:aa:82:4d:2d:74:86:82:fe:af:cd:b7:
                    f7:bb:83:99:13:d6:4d:7f:81:6e:d7:d9:4c:ae:00:
                    d9:f5:d8:61:86:4d:f8:6d:27:82:2c:71:f6:ca:b7:
                    ab:12:dc:25:34:f8:86:cd:2a:9d:2a:1e:a7:72:30:
                    99:83:23:65:7e:4e:b3:28:1a:d9:20:22:c9:07:fc:
                    20:5b:42:46:08:b2:59:91:02:74:61:33:0a:57:76:
                    61:5c:4a:99:ef:f7:80:4f:36:10:30:ea:51:b5:11:
                    5c:d0:e4:07:5e:6d:90:f0:3e:86:6e:d8:0b:9a:11:
                    50:7b:0a:e5:c8:21:0d:48:38:86:5e:26:e4:30:f6:
                    91:bd:25:a6:f7:66:10:2c:3d:55:e2:f3:4b:95:ae:
                    98:62:a4:7a:47:49:d9:f9:68:2a:ef:e9:4d:e0:de:
                    e2:23
                Exponent: 65537 (0x10001)
        X509v3 extensions:
            X509v3 Basic Constraints: 
                CA:FALSE
            X509v3 Subject Key Identifier: 
                2D:EE:F4:64:6B:C9:81:B6:A8:94:48:83:5C:35:49:67:76:25:A6:F0
            X509v3 Authority Key Identifier: 
                keyid:70:95:9B:27:4D:46:61:DA:7C:04:22:01:06:17:93:2B:58:1C:8E:F8
                DirName:/CN=Easy-RSA CA
                serial:91:92:63:C3:EF:EB:C8:68

            X509v3 Extended Key Usage: 
                TLS Web Server Authentication
            X509v3 Key Usage: 
                Digital Signature, Key Encipherment
    Signature Algorithm: sha256WithRSAEncryption
        22:83:b1:f7:cd:89:f4:04:a9:f5:be:eb:64:b9:b7:9d:37:6c:
        ee:35:4e:08:ff:bf:75:c1:55:14:29:d0:08:d5:11:1a:2c:05:
        3c:e5:b7:76:d0:71:16:d7:1d:ae:4d:32:08:92:52:e3:96:3e:
        c0:f9:7b:5b:ae:29:d8:ee:f2:7d:41:f7:2c:12:81:f0:d0:24:
        c4:97:67:88:f2:e4:ce:50:49:f0:61:6d:08:15:04:19:a6:d7:
        fe:c1:79:90:ed:f6:58:e3:81:ff:6a:11:fd:dd:34:2b:13:b8:
        a1:7b:0c:f3:56:44:35:44:dd:45:6f:0d:a6:7d:5b:7f:ac:d5:
        cb:48:fa:b0:fb:f4:44:ad:3d:9b:5b:58:ee:fb:3b:27:1f:92:
        7b:91:9a:1c:b3:78:1e:2a:91:e6:4f:a9:5b:b2:b0:35:0c:36:
        10:49:db:72:56:3c:46:68:d3:20:83:ed:eb:41:0d:ab:23:0e:
        34:47:33:e2:f7:18:9b:98:f3:b8:8a:ca:64:35:ed:67:14:43:
        11:0a:ab:58:98:46:de:79:31:dc:a2:da:22:c4:82:e3:e0:11:
        37:c8:c7:a2:42:54:11:11:a4:c1:4c:aa:59:79:d5:ac:6f:80:
        73:fc:09:79:01:11:13:57:19:a7:72:25:ce:81:04:44:f9:a1:
        86:d9:d6:54
-----BEGIN CERTIFICATE-----
MIIDOjCCAiKgAwIBAgIBATANBgkqhkiG9w0BAQsFADAWMRQwEgYDVQQDDAtFYXN5
LVJTQSBDQTAeFw0xNjA1MTYxNDI5NTZaFw0yNjA1MTQxNDI5NTZaMBExDzANBgNV
BAMMBnNlcnZlcjCCASIwDQYJKoZIhvcNAQEBBQADggEPADCCAQoCggEBAKTvyhBx
lSOncw0FuWrsD2NK5KQid6SQ1CRAlRlDCWNapIVBDzq8bVyHNSjKb2n19kC3hFMz
J2plogbufRdXRGpZPHajgBFe1wpPI6uFv8LGiTasN8U8EoxMbpyAFqqCTS10hoL+
r82397uDmRPWTX+BbtfZTK4A2fXYYYZN+G0ngixx9sq3qxLcJTT4hs0qnSoep3Iw
mYMjZX5Osyga2SAiyQf8IFtCRgiyWZECdGEzCld2YVxKme/3gE82EDDqUbURXNDk
B15tkPA+hm7YC5oRUHsK5cghDUg4hl4m5DD2kb0lpvdmECw9VeLzS5WumGKkekdJ
2floKu/pTeDe4iMCAwEAAaOBlzCBlDAJBgNVHRMEAjAAMB0GA1UdDgQWBBQt7vRk
a8mBtqiUSINcNUlndiWm8DBGBgNVHSMEPzA9gBRwlZsnTUZh2nwEIgEGF5MrWByO
+KEapBgwFjEUMBIGA1UEAwwLRWFzeS1SU0EgQ0GCCQCRkmPD7+vIaDATBgNVHSUE
DDAKBggrBgEFBQcDATALBgNVHQ8EBAMCBaAwDQYJKoZIhvcNAQELBQADggEBACKD
sffNifQEqfW+62S5t503bO41Tgj/v3XBVRQp0AjVERosBTzlt3bQcRbXHa5NMgiS
UuOWPsD5e1uuKdju8n1B9ywSgfDQJMSXZ4jy5M5QSfBhbQgVBBmm1/7BeZDt9ljj
gf9qEf3dNCsTuKF7DPNWRDVE3UVvDaZ9W3+s1ctI+rD79EStPZtbWO77OycfknuR
mhyzeB4qkeZPqVuysDUMNhBJ23JWPEZo0yCD7etBDasjDjRHM+L3GJuY87iKymQ1
7WcUQxEKq1iYRt55Mdyi2iLEguPgETfIx6JCVBERpMFMqll51axvgHP8CXkBERNX
GadyJc6BBET5oYbZ1lQ=
-----END CERTIFICATE-----
