Certificate:
    Data:
        Version: 3 (0x2)
        Serial Number:
            a8:a2:fd:30:9b:a3:ae:48:20:0c:5f:f6:d3:ba:95:ec
    Signature Algorithm: sha256WithRSAEncryption
        Issuer: CN=OpenVPN test server
        Validity
            Not Before: Mar 29 09:13:58 2016 GMT
            Not After : Mar 27 09:13:58 2026 GMT
        Subject: CN=server
        Subject Public Key Info:
            Public Key Algorithm: rsaEncryption
                Public-Key: (2048 bit)
                Modulus:
                    00:c9:e1:44:aa:6d:8c:ef:bb:7c:c5:61:53:00:7f:
                    c8:43:9a:ac:50:e9:84:1a:38:ac:23:59:a7:c6:8f:
                    93:03:88:3f:17:03:7a:9a:0d:d0:7f:ff:39:8a:c5:
                    25:4a:bf:90:39:9e:ee:f5:e0:c0:74:66:80:22:d4:
                    5d:cd:79:4a:76:8f:ab:dc:1d:9b:ff:98:1d:bd:4e:
                    22:1c:cc:c7:b7:af:0a:7c:7c:dd:77:b5:35:51:f6:
                    15:42:39:42:1b:8f:b4:dc:02:65:77:7f:05:79:22:
                    7a:74:39:4d:e9:33:be:c4:5c:6e:90:9b:a3:e7:8d:
                    c6:7e:04:81:d3:29:d6:ae:73:eb:6f:8f:7b:a2:9b:
                    6a:5e:7e:39:a3:37:8a:80:e6:fb:14:59:66:ad:ef:
                    de:76:46:d7:a4:09:49:1b:2f:28:b6:f8:69:ff:32:
                    46:9e:93:7a:48:e6:b8:29:81:ef:4c:bb:bd:93:56:
                    68:b3:13:d4:39:5e:4f:e1:e6:a7:2b:0e:f5:88:71:
                    9c:4d:71:46:63:48:44:87:a2:3a:ad:f1:5e:27:ad:
                    73:8b:bd:ea:5e:2a:74:e8:9f:0c:ac:c9:ee:4c:54:
                    85:45:65:95:bd:10:10:2a:fc:ff:a2:99:fd:f9:17:
                    ee:14:00:6f:8a:e1:a2:96:08:85:37:c2:17:61:98:
                    e8:e3
                Exponent: 65537 (0x10001)
        X509v3 extensions:
            X509v3 Basic Constraints: 
                CA:FALSE
            X509v3 Subject Key Identifier: 
                FE:CD:74:5F:29:E4:0D:8C:7B:CB:23:23:81:09:C9:BA:B7:81:89:42
            X509v3 Authority Key Identifier: 
                keyid:DD:53:E0:1A:BB:D1:64:4F:46:24:DB:95:9A:DA:3D:7F:50:1A:E4:E2
                DirName:/CN=OpenVPN test server
                serial:9D:22:90:B7:18:9D:06:71

            X509v3 Extended Key Usage: 
                TLS Web Server Authentication
            X509v3 Key Usage: 
                Digital Signature, Key Encipherment
    Signature Algorithm: sha256WithRSAEncryption
         4d:44:a3:de:6b:5f:ec:d9:86:6c:74:4a:ce:cb:e6:d9:51:83:
         7c:74:de:9c:0d:d8:fd:b3:e8:72:a9:9d:8f:73:8d:bc:3a:ca:
         a2:d7:ae:05:0e:46:ac:b8:e0:97:4a:1a:18:61:68:e5:2c:a6:
         1f:d7:53:d8:0c:3a:fd:06:81:bf:c9:09:b8:27:1b:88:d0:a7:
         ba:39:b7:b7:89:88:b0:b3:a5:60:61:8d:d1:d7:92:fd:fd:dc:
         5b:c8:c1:b8:5e:91:da:63:31:00:65:70:ca:61:be:e3:d3:0a:
         b4:bb:62:a8:2e:35:20:a9:c3:f6:b3:a3:fa:e2:cf:36:36:10:
         b1:9a:01:00:b1:c2:57:47:04:1b:4d:5e:12:df:9f:00:ab:39:
         bc:7c:4a:6e:20:ed:9d:44:e7:f3:ee:fa:fd:f8:f4:4e:68:22:
         9a:e5:9c:06:a1:10:42:5f:1b:f9:62:bc:46:85:5b:ea:a4:b5:
         69:15:2a:08:83:af:71:21:40:ad:6a:6a:7f:4f:4b:ae:d3:95:
         d5:b2:63:d8:9f:da:00:a5:29:93:85:54:bb:08:aa:18:31:f6:
         e8:e0:c3:f8:16:b6:0c:13:1e:19:87:45:e2:47:eb:b0:7d:97:
         1b:5f:e0:f2:f7:f1:f4:e2:17:32:18:4f:5d:2d:30:11:c0:f3:
         94:28:4f:c2
-----BEGIN CERTIFICATE-----
MIIDWjCCAkKgAwIBAgIRAKii/TCbo65IIAxf9tO6lewwDQYJKoZIhvcNAQELBQAw
HjEcMBoGA1UEAxMTT3BlblZQTiB0ZXN0IHNlcnZlcjAeFw0xNjAzMjkwOTEzNTha
Fw0yNjAzMjcwOTEzNThaMBExDzANBgNVBAMTBnNlcnZlcjCCASIwDQYJKoZIhvcN
AQEBBQADggEPADCCAQoCggEBAMnhRKptjO+7fMVhUwB/yEOarFDphBo4rCNZp8aP
kwOIPxcDepoN0H//OYrFJUq/kDme7vXgwHRmgCLUXc15SnaPq9wdm/+YHb1OIhzM
x7evCnx83Xe1NVH2FUI5QhuPtNwCZXd/BXkienQ5TekzvsRcbpCbo+eNxn4EgdMp
1q5z62+Pe6Kbal5+OaM3ioDm+xRZZq3v3nZG16QJSRsvKLb4af8yRp6TekjmuCmB
70y7vZNWaLMT1DleT+HmpysO9YhxnE1xRmNIRIeiOq3xXietc4u96l4qdOifDKzJ
7kxUhUVllb0QECr8/6KZ/fkX7hQAb4rhopYIhTfCF2GY6OMCAwEAAaOBnzCBnDAJ
BgNVHRMEAjAAMB0GA1UdDgQWBBT+zXRfKeQNjHvLIyOBCcm6t4GJQjBOBgNVHSME
RzBFgBTdU+Aau9FkT0Yk25Wa2j1/UBrk4qEipCAwHjEcMBoGA1UEAxMTT3BlblZQ
TiB0ZXN0IHNlcnZlcoIJAJ0ikLcYnQZxMBMGA1UdJQQMMAoGCCsGAQUFBwMBMAsG
A1UdDwQEAwIFoDANBgkqhkiG9w0BAQsFAAOCAQEATUSj3mtf7NmGbHRKzsvm2VGD
fHTenA3Y/bPocqmdj3ONvDrKoteuBQ5GrLjgl0oaGGFo5SymH9dT2Aw6/QaBv8kJ
uCcbiNCnujm3t4mIsLOlYGGN0deS/f3cW8jBuF6R2mMxAGVwymG+49MKtLtiqC41
IKnD9rOj+uLPNjYQsZoBALHCV0cEG01eEt+fAKs5vHxKbiDtnUTn8+76/fj0Tmgi
muWcBqEQQl8b+WK8RoVb6qS1aRUqCIOvcSFArWpqf09LrtOV1bJj2J/aAKUpk4VU
uwiqGDH26ODD+Ba2DBMeGYdF4kfrsH2XG1/g8vfx9OIXMhhPXS0wEcDzlChPwg==
-----END CERTIFICATE-----
