Certificate:
    Data:
        Version: 3 (0x2)
        Serial Number:
            88:a4:27:a3:c3:a8:03:a0:f4:1c:9c:8c:f5:0e:df:1d
    Signature Algorithm: sha256WithRSAEncryption
        Issuer: CN=OpenVPN test server
        Validity
            Not Before: Mar 31 08:08:56 2016 GMT
            Not After : Mar 29 08:08:56 2026 GMT
        Subject: CN=server01
        Subject Public Key Info:
            Public Key Algorithm: rsaEncryption
                Public-Key: (2048 bit)
                Modulus:
                    00:d4:7a:1d:d9:93:be:bf:b4:1f:67:c1:26:35:76:
                    01:e7:97:76:c4:2c:45:79:ba:de:83:ab:50:4d:83:
                    8a:1e:d0:56:04:6d:4f:bd:5e:27:d4:2a:21:0a:40:
                    b4:00:ce:e5:1a:f7:7e:ad:4d:61:6b:17:03:db:91:
                    ed:d6:df:58:25:81:37:d3:f7:81:88:aa:c1:20:2a:
                    02:22:0a:58:1b:fa:e4:95:ec:c3:0b:97:37:bd:06:
                    30:0b:d9:46:73:dd:f1:07:c1:1b:ee:1a:1a:a4:e5:
                    ae:09:8b:6d:85:2a:d2:4b:6c:6c:5b:a3:39:b1:da:
                    3a:5e:b5:64:08:9a:08:92:87:86:cc:ca:18:97:15:
                    8f:53:2e:f6:6b:4b:19:a0:0c:1e:10:34:70:da:b8:
                    1d:82:00:97:ca:95:65:08:a3:9f:d3:c9:ba:13:e3:
                    e4:d0:5a:6f:de:63:81:21:28:d5:97:e6:d9:1f:47:
                    72:6f:b7:d6:ab:96:e8:dc:b3:f3:d1:be:3a:dc:89:
                    a2:3c:7c:13:d6:80:af:d7:5e:93:01:d1:31:af:5a:
                    a2:5c:33:5a:ce:65:28:6a:00:4d:5d:b5:e1:a6:71:
                    f5:9d:b8:c1:ba:2e:c1:db:0a:9f:f6:b0:a9:7d:12:
                    51:82:62:ab:40:15:bc:d3:a1:f0:11:0d:e9:53:ef:
                    b7:ff
                Exponent: 65537 (0x10001)
        X509v3 extensions:
            X509v3 Basic Constraints: 
                CA:FALSE
            X509v3 Subject Key Identifier: 
                29:9D:3F:C2:65:41:30:8B:F2:72:F0:BE:0E:0E:5A:3B:79:8B:86:ED
            X509v3 Authority Key Identifier: 
                keyid:DD:53:E0:1A:BB:D1:64:4F:46:24:DB:95:9A:DA:3D:7F:50:1A:E4:E2
                DirName:/CN=OpenVPN test server
                serial:9D:22:90:B7:18:9D:06:71

            X509v3 Extended Key Usage: 
                TLS Web Server Authentication
            X509v3 Key Usage: 
                Digital Signature, Key Encipherment
    Signature Algorithm: sha256WithRSAEncryption
         97:66:99:f3:ce:ad:60:02:1f:f4:9a:55:45:c9:10:d1:d5:79:
         be:7b:3b:fb:34:63:cd:64:50:55:75:64:d2:e0:61:ea:6d:48:
         95:c6:28:3e:c0:ca:8d:b9:a3:a9:9a:93:4c:68:f4:05:87:8b:
         25:59:0f:f3:aa:fb:d2:ff:50:91:b2:49:7b:8f:21:f5:a1:e1:
         78:c0:e7:f4:52:d6:8e:55:6f:43:4b:0f:01:1e:01:25:d1:0e:
         98:90:8f:25:f0:78:e9:c7:f2:a4:26:03:f9:05:c3:7c:5f:51:
         47:4f:9b:c8:74:42:cc:cf:39:3d:c6:cb:0e:6f:cc:7b:2a:27:
         54:18:8b:58:94:85:53:5d:a5:58:d6:0f:d9:8d:01:12:71:29:
         b6:cc:6a:28:e1:86:40:03:30:f4:d9:cd:b2:d6:4a:42:1c:87:
         11:b5:e0:02:c8:25:9c:91:09:c0:f4:0f:f8:fb:48:f9:c8:46:
         77:da:90:99:ff:83:11:34:ac:a6:f6:69:ae:b6:d9:d2:a5:f1:
         7b:2d:09:0d:a2:79:8f:93:22:bf:7f:97:df:c4:52:89:c8:ed:
         f7:6d:8c:1a:5f:e2:b3:e0:a1:f3:54:1d:c6:b5:78:ae:b8:a8:
         c0:7c:32:47:70:b4:5c:d9:73:3f:23:6b:77:a1:d2:fa:90:2b:
         16:4f:08:9a
-----BEGIN CERTIFICATE-----
MIIDXDCCAkSgAwIBAgIRAIikJ6PDqAOg9BycjPUO3x0wDQYJKoZIhvcNAQELBQAw
HjEcMBoGA1UEAxMTT3BlblZQTiB0ZXN0IHNlcnZlcjAeFw0xNjAzMzEwODA4NTZa
Fw0yNjAzMjkwODA4NTZaMBMxETAPBgNVBAMTCHNlcnZlcjAxMIIBIjANBgkqhkiG
9w0BAQEFAAOCAQ8AMIIBCgKCAQEA1Hod2ZO+v7QfZ8EmNXYB55d2xCxFebreg6tQ
TYOKHtBWBG1PvV4n1CohCkC0AM7lGvd+rU1haxcD25Ht1t9YJYE30/eBiKrBICoC
IgpYG/rklezDC5c3vQYwC9lGc93xB8Eb7hoapOWuCYtthSrSS2xsW6M5sdo6XrVk
CJoIkoeGzMoYlxWPUy72a0sZoAweEDRw2rgdggCXypVlCKOf08m6E+Pk0Fpv3mOB
ISjVl+bZH0dyb7fWq5bo3LPz0b463ImiPHwT1oCv116TAdExr1qiXDNazmUoagBN
XbXhpnH1nbjBui7B2wqf9rCpfRJRgmKrQBW806HwEQ3pU++3/wIDAQABo4GfMIGc
MAkGA1UdEwQCMAAwHQYDVR0OBBYEFCmdP8JlQTCL8nLwvg4OWjt5i4btME4GA1Ud
IwRHMEWAFN1T4Bq70WRPRiTblZraPX9QGuTioSKkIDAeMRwwGgYDVQQDExNPcGVu
VlBOIHRlc3Qgc2VydmVyggkAnSKQtxidBnEwEwYDVR0lBAwwCgYIKwYBBQUHAwEw
CwYDVR0PBAQDAgWgMA0GCSqGSIb3DQEBCwUAA4IBAQCXZpnzzq1gAh/0mlVFyRDR
1Xm+ezv7NGPNZFBVdWTS4GHqbUiVxig+wMqNuaOpmpNMaPQFh4slWQ/zqvvS/1CR
skl7jyH1oeF4wOf0UtaOVW9DSw8BHgEl0Q6YkI8l8Hjpx/KkJgP5BcN8X1FHT5vI
dELMzzk9xssOb8x7KidUGItYlIVTXaVY1g/ZjQEScSm2zGoo4YZAAzD02c2y1kpC
HIcRteACyCWckQnA9A/4+0j5yEZ32pCZ/4MRNKym9mmuttnSpfF7LQkNonmPkyK/
f5ffxFKJyO33bYwaX+Kz4KHzVB3GtXiuuKjAfDJHcLRc2XM/I2t3odL6kCsWTwia
-----END CERTIFICATE-----
