Certificate:
    Data:
        Version: 3 (0x2)
        Serial Number:
            69:01:c8:b3:de:18:d8:da:c9:13:be:a4:d4:6d:5e:f5
    Signature Algorithm: sha256WithRSAEncryption
        Issuer: CN=Immort Corporation
        Validity
            Not Before: Jun 15 15:28:00 2016 GMT
            Not After : Jun 13 15:28:00 2026 GMT
        Subject: CN=client01
        Subject Public Key Info:
            Public Key Algorithm: rsaEncryption
                Public-Key: (2048 bit)
                Modulus:
                    00:d0:2e:bf:92:89:22:1e:ae:b5:de:30:0a:d5:d7:
                    a9:cf:7e:5b:b5:9c:4e:3a:9c:12:ce:4f:60:c3:d0:
                    c3:e5:f7:35:a2:40:0e:02:79:e2:3e:4d:93:2b:dd:
                    51:e7:c0:97:8e:5d:e1:f8:96:88:b9:ea:59:be:89:
                    e1:2d:28:7a:fd:c4:6d:70:18:6e:a8:eb:7a:41:00:
                    9a:f6:1b:73:d6:c5:3d:b4:3a:ce:0d:2c:91:35:e9:
                    ae:f9:c2:cc:d3:0a:7c:72:3b:c6:b3:f0:f2:ca:50:
                    d9:9c:8a:42:cc:f6:71:0f:bf:7d:04:dc:ba:a1:6c:
                    bc:75:d3:d6:07:83:4d:07:4e:ff:f5:6f:ca:e6:72:
                    16:be:2c:18:14:2a:b1:e6:4a:ba:e4:d6:a1:30:54:
                    97:eb:34:fd:0e:b7:9e:a4:3c:a6:d9:78:0a:8c:c7:
                    af:ee:00:66:e2:8a:72:d3:05:d9:9d:34:d4:fd:d1:
                    39:82:75:74:d2:8f:17:fc:c7:65:4c:51:3b:31:d6:
                    57:7c:d6:22:3e:2e:36:fd:3d:36:65:e6:91:aa:31:
                    df:d5:ee:8b:53:c3:21:81:df:e4:a8:4e:3d:40:54:
                    9b:bf:b2:5c:11:87:ca:13:2c:68:81:37:9a:e8:31:
                    28:60:01:ed:76:4f:23:2b:59:dc:4d:3a:d2:2d:64:
                    97:db
                Exponent: 65537 (0x10001)
        X509v3 extensions:
            X509v3 Basic Constraints: 
                CA:FALSE
            X509v3 Subject Key Identifier: 
                CE:B2:65:B0:47:29:80:4E:A7:0E:55:CD:51:BE:DD:3F:0B:63:4D:77
            X509v3 Authority Key Identifier: 
                keyid:37:C1:FF:D3:E8:38:AF:B3:24:62:A4:7E:6C:93:2E:38:CA:07:34:FC
                DirName:/CN=Immort Corporation
                serial:9A:C1:13:4E:17:0E:EE:66

            X509v3 Extended Key Usage: 
                TLS Web Client Authentication
            X509v3 Key Usage: 
                Digital Signature
    Signature Algorithm: sha256WithRSAEncryption
         21:bb:79:b8:59:c5:97:88:c0:93:fa:ce:ee:76:bc:d1:96:db:
         bf:3f:04:68:d0:06:8f:6c:b7:39:ad:a3:41:39:e3:93:0d:25:
         3f:a1:3b:b2:44:8b:d5:75:01:93:95:b8:f8:72:88:9e:bf:eb:
         c5:4c:2a:76:c7:f9:bf:ca:82:b0:84:20:c7:eb:69:f3:cd:ff:
         b5:9f:60:bd:43:57:58:11:e3:cc:4a:6f:02:16:6a:68:f3:d3:
         06:ff:74:24:1d:65:ec:58:1f:9d:29:cf:04:9c:08:e7:47:ac:
         e0:d0:ac:49:e5:d4:ff:a7:ab:54:5b:2e:f5:e9:c8:5a:4a:bd:
         42:e3:71:07:f7:18:2b:a3:6b:ae:9f:17:22:08:32:d3:52:05:
         1e:28:19:b6:9e:9f:50:5f:a1:ee:51:c8:0b:f2:2a:69:4e:0d:
         9c:39:2c:1c:71:ae:9c:15:3b:d4:52:50:c4:76:e3:ee:7b:26:
         65:d3:3b:de:c2:fc:96:b8:24:49:e7:02:55:fd:26:be:63:34:
         2c:03:7c:47:3a:f0:31:8c:a2:12:d9:c1:3f:77:f9:d7:30:0e:
         9e:35:9c:f0:fe:6b:18:b5:d2:7a:17:31:6c:40:7a:a2:ee:98:
         44:34:11:9f:af:27:bb:e6:1a:ae:8a:2b:de:cc:db:c7:96:6e:
         74:43:91:94
-----BEGIN CERTIFICATE-----
MIIDWTCCAkGgAwIBAgIQaQHIs94Y2NrJE76k1G1e9TANBgkqhkiG9w0BAQsFADAd
MRswGQYDVQQDDBJJbW1vcnQgQ29ycG9yYXRpb24wHhcNMTYwNjE1MTUyODAwWhcN
MjYwNjEzMTUyODAwWjATMREwDwYDVQQDDAhjbGllbnQwMTCCASIwDQYJKoZIhvcN
AQEBBQADggEPADCCAQoCggEBANAuv5KJIh6utd4wCtXXqc9+W7WcTjqcEs5PYMPQ
w+X3NaJADgJ54j5NkyvdUefAl45d4fiWiLnqWb6J4S0oev3EbXAYbqjrekEAmvYb
c9bFPbQ6zg0skTXprvnCzNMKfHI7xrPw8spQ2ZyKQsz2cQ+/fQTcuqFsvHXT1geD
TQdO//VvyuZyFr4sGBQqseZKuuTWoTBUl+s0/Q63nqQ8ptl4CozHr+4AZuKKctMF
2Z001P3ROYJ1dNKPF/zHZUxROzHWV3zWIj4uNv09NmXmkaox39Xui1PDIYHf5KhO
PUBUm7+yXBGHyhMsaIE3mugxKGAB7XZPIytZ3E060i1kl9sCAwEAAaOBnjCBmzAJ
BgNVHRMEAjAAMB0GA1UdDgQWBBTOsmWwRymATqcOVc1Rvt0/C2NNdzBNBgNVHSME
RjBEgBQ3wf/T6DivsyRipH5sky44ygc0/KEhpB8wHTEbMBkGA1UEAwwSSW1tb3J0
IENvcnBvcmF0aW9uggkAmsETThcO7mYwEwYDVR0lBAwwCgYIKwYBBQUHAwIwCwYD
VR0PBAQDAgeAMA0GCSqGSIb3DQEBCwUAA4IBAQAhu3m4WcWXiMCT+s7udrzRltu/
PwRo0AaPbLc5raNBOeOTDSU/oTuyRIvVdQGTlbj4coiev+vFTCp2x/m/yoKwhCDH
62nzzf+1n2C9Q1dYEePMSm8CFmpo89MG/3QkHWXsWB+dKc8EnAjnR6zg0KxJ5dT/
p6tUWy716chaSr1C43EH9xgro2uunxciCDLTUgUeKBm2np9QX6HuUcgL8ippTg2c
OSwcca6cFTvUUlDEduPueyZl0zvewvyWuCRJ5wJV/Sa+YzQsA3xHOvAxjKIS2cE/
d/nXMA6eNZzw/msYtdJ6FzFsQHqi7phENBGfrye75hquiivezNvHlm50Q5GU
-----END CERTIFICATE-----
