Certificate:
    Data:
        Version: 3 (0x2)
        Serial Number: 1 (0x1)
    Signature Algorithm: sha256WithRSAEncryption
        Issuer: CN=Easy-RSA CA
        Validity
            Not Before: May 17 14:41:05 2016 GMT
            Not After : May 15 14:41:05 2026 GMT
        Subject: CN=clientFake
        Subject Public Key Info:
            Public Key Algorithm: rsaEncryption
                Public-Key: (2048 bit)
                Modulus:
                    00:c7:7c:51:d2:99:e2:07:16:ba:01:15:ca:b4:d9:
                    4a:4d:02:9c:85:68:ac:f5:e0:31:22:4f:95:26:ab:
                    08:00:4d:a0:32:0b:7d:03:ec:e4:11:c8:c7:3c:92:
                    25:65:ab:f4:e8:96:b1:b3:78:ce:e0:47:3e:6a:b4:
                    66:51:96:c0:e9:bd:db:38:ae:62:99:bc:77:55:c4:
                    38:09:15:3f:ce:91:54:ab:18:28:cf:05:30:cb:a0:
                    da:67:5a:8a:41:b6:5f:fa:45:34:17:49:fe:29:c4:
                    54:16:f2:1d:30:70:45:1e:07:82:28:af:07:ad:d9:
                    c2:d8:7e:f1:6f:52:ff:4f:5c:37:2b:29:18:19:33:
                    b6:3b:0f:b7:f2:0e:dd:a8:78:a0:e7:02:cc:28:58:
                    88:44:df:f5:87:fe:e0:cb:80:42:11:45:36:40:cd:
                    e6:12:9c:ec:46:d8:ed:91:97:aa:cf:a1:79:86:5a:
                    c6:93:1d:1a:a7:57:13:c8:ae:e7:ea:24:e0:b8:2b:
                    68:14:63:6e:64:72:3d:a3:77:e8:2a:5b:ed:51:63:
                    85:44:d7:75:fa:73:67:22:91:dc:77:34:63:7f:19:
                    1f:94:60:b6:b7:78:2f:37:44:d8:d2:9a:d4:97:1e:
                    a2:0c:a0:f1:5a:3b:35:5c:fd:11:ac:a0:83:f0:3b:
                    a6:81
                Exponent: 65537 (0x10001)
        X509v3 extensions:
            X509v3 Basic Constraints: 
                CA:FALSE
            X509v3 Subject Key Identifier: 
                44:82:C0:01:E0:D9:48:25:D0:5C:49:58:1E:96:73:15:4F:EF:17:C4
            X509v3 Authority Key Identifier: 
                keyid:62:69:FE:32:15:7F:35:8E:ED:C4:6F:21:BF:93:B1:A4:67:AD:A4:CE
                DirName:/CN=Easy-RSA CA
                serial:93:58:37:9D:2A:7F:3B:6F

            X509v3 Extended Key Usage: 
                TLS Web Client Authentication
            X509v3 Key Usage: 
                Digital Signature
    Signature Algorithm: sha256WithRSAEncryption
         2f:f1:04:fd:ac:6b:a4:66:cc:cd:f2:e8:76:9f:39:49:11:86:
         31:26:8a:94:7f:71:50:68:f6:ba:27:d5:1d:16:d0:ef:0f:e5:
         08:44:64:ba:4e:75:eb:06:c7:de:61:7f:e1:00:68:3f:03:22:
         3d:f8:79:c8:d8:c8:5a:4f:b4:9d:54:d4:b4:19:95:c1:e0:a1:
         58:d0:fd:c4:3b:c4:13:30:7a:e2:f6:c8:98:67:99:63:6e:d9:
         b7:ed:26:5b:6a:fd:4c:8c:de:04:e5:cd:87:4c:b0:41:eb:98:
         4c:c5:1a:41:dc:9f:db:1b:ac:82:ac:a9:80:36:1b:7d:4a:07:
         ac:9d:95:e9:14:c5:a3:de:d5:7e:0b:51:09:b0:23:d9:58:92:
         8c:90:f5:e9:a7:5d:22:c2:d1:b4:91:f9:44:f7:18:8c:7e:de:
         71:5b:b0:60:7c:38:60:fc:8d:0d:0d:02:d9:0a:1a:4d:cd:00:
         04:8f:cc:18:c7:e3:45:a0:2a:8e:15:e9:99:1b:c5:54:65:3c:
         41:55:99:15:53:6e:b2:39:3b:94:5e:ac:3c:5d:2d:ec:8a:28:
         84:0a:e8:ad:b8:fa:6c:c3:7a:42:6a:7a:b5:ea:6b:ba:4a:f9:
         9e:8f:76:32:9c:16:a9:9a:82:45:87:91:07:c6:a9:f9:42:4d:
         ac:79:33:68
-----BEGIN CERTIFICATE-----
MIIDPjCCAiagAwIBAgIBATANBgkqhkiG9w0BAQsFADAWMRQwEgYDVQQDDAtFYXN5
LVJTQSBDQTAeFw0xNjA1MTcxNDQxMDVaFw0yNjA1MTUxNDQxMDVaMBUxEzARBgNV
BAMMCmNsaWVudEZha2UwggEiMA0GCSqGSIb3DQEBAQUAA4IBDwAwggEKAoIBAQDH
fFHSmeIHFroBFcq02UpNApyFaKz14DEiT5UmqwgATaAyC30D7OQRyMc8kiVlq/To
lrGzeM7gRz5qtGZRlsDpvds4rmKZvHdVxDgJFT/OkVSrGCjPBTDLoNpnWopBtl/6
RTQXSf4pxFQW8h0wcEUeB4Iorwet2cLYfvFvUv9PXDcrKRgZM7Y7D7fyDt2oeKDn
AswoWIhE3/WH/uDLgEIRRTZAzeYSnOxG2O2Rl6rPoXmGWsaTHRqnVxPIrufqJOC4
K2gUY25kcj2jd+gqW+1RY4VE13X6c2cikdx3NGN/GR+UYLa3eC83RNjSmtSXHqIM
oPFaOzVc/RGsoIPwO6aBAgMBAAGjgZcwgZQwCQYDVR0TBAIwADAdBgNVHQ4EFgQU
RILAAeDZSCXQXElYHpZzFU/vF8QwRgYDVR0jBD8wPYAUYmn+MhV/NY7txG8hv5Ox
pGetpM6hGqQYMBYxFDASBgNVBAMMC0Vhc3ktUlNBIENBggkAk1g3nSp/O28wEwYD
VR0lBAwwCgYIKwYBBQUHAwIwCwYDVR0PBAQDAgeAMA0GCSqGSIb3DQEBCwUAA4IB
AQAv8QT9rGukZszN8uh2nzlJEYYxJoqUf3FQaPa6J9UdFtDvD+UIRGS6TnXrBsfe
YX/hAGg/AyI9+HnI2MhaT7SdVNS0GZXB4KFY0P3EO8QTMHri9siYZ5ljbtm37SZb
av1MjN4E5c2HTLBB65hMxRpB3J/bG6yCrKmANht9SgesnZXpFMWj3tV+C1EJsCPZ
WJKMkPXpp10iwtG0kflE9xiMft5xW7BgfDhg/I0NDQLZChpNzQAEj8wYx+NFoCqO
FemZG8VUZTxBVZkVU26yOTuUXqw8XS3siiiECuituPpsw3pCanq16mu6Svmej3Yy
nBapmoJFh5EHxqn5Qk2seTNo
-----END CERTIFICATE-----
