Certificate:
    Data:
        Version: 3 (0x2)
        Serial Number: 2 (0x2)
    Signature Algorithm: sha256WithRSAEncryption
        Issuer: CN=Easy-RSA CA
        Validity
            Not Before: May 17 14:41:26 2016 GMT
            Not After : May 15 14:41:26 2026 GMT
        Subject: CN=serverFake
        Subject Public Key Info:
            Public Key Algorithm: rsaEncryption
                Public-Key: (2048 bit)
                Modulus:
                    00:ba:69:3d:95:79:2f:7f:1c:bc:6c:06:c2:e9:12:
                    8a:8a:0a:56:e8:a9:30:b3:36:26:d9:28:36:fa:ad:
                    ec:e9:f1:0a:5a:fb:42:2b:ba:cc:69:28:3b:bf:25:
                    41:65:c0:05:b7:e0:0d:28:ba:7c:81:b9:4f:0a:ef:
                    1e:03:39:7a:e6:e4:a6:89:55:50:49:a5:bd:47:b3:
                    0b:a1:17:fd:7b:d6:0e:d7:04:06:aa:d5:07:88:ff:
                    b9:db:90:25:d3:88:fd:35:00:59:b9:04:28:fb:e9:
                    67:d1:0f:7b:e2:ce:be:d2:ee:95:d7:64:17:fa:a1:
                    39:fb:d2:b5:e1:e1:a6:23:95:5a:f7:21:5d:e5:a3:
                    46:e3:9b:c1:c0:3c:ac:35:7a:06:19:5c:ba:78:91:
                    cc:f0:b3:91:5b:c6:c0:a6:b8:d8:cb:50:33:e3:55:
                    4d:a9:f4:17:51:7f:2e:0e:af:3b:e3:ac:92:84:dc:
                    36:10:9a:49:21:91:e6:4a:ee:79:65:75:48:e4:10:
                    d4:75:52:0b:09:72:40:ea:ca:b8:56:f3:17:ee:04:
                    05:a6:4d:13:f3:99:64:cd:3d:d7:f1:ac:84:20:ea:
                    1c:b9:38:ea:22:d1:9b:8e:ab:79:1d:21:14:15:be:
                    89:e2:e2:13:a5:6e:f6:70:dd:92:ba:8d:31:53:44:
                    e7:1b
                Exponent: 65537 (0x10001)
        X509v3 extensions:
            X509v3 Basic Constraints: 
                CA:FALSE
            X509v3 Subject Key Identifier: 
                53:10:C0:78:AD:BE:2B:E0:38:F3:79:9F:26:1C:AA:A1:63:79:65:00
            X509v3 Authority Key Identifier: 
                keyid:62:69:FE:32:15:7F:35:8E:ED:C4:6F:21:BF:93:B1:A4:67:AD:A4:CE
                DirName:/CN=Easy-RSA CA
                serial:93:58:37:9D:2A:7F:3B:6F

            X509v3 Extended Key Usage: 
                TLS Web Server Authentication
            X509v3 Key Usage: 
                Digital Signature, Key Encipherment
    Signature Algorithm: sha256WithRSAEncryption
         93:a1:4a:76:fa:cc:c7:d5:e5:99:f3:25:61:89:46:0c:96:cf:
         52:e7:c0:2b:85:40:35:db:d6:92:5a:72:57:a0:dc:fd:84:c4:
         c6:fd:dd:28:fa:97:45:b3:11:34:c8:1e:fa:a5:0c:52:74:51:
         c7:53:4a:c0:18:95:25:bf:c9:e6:5a:fd:18:b3:8b:12:6a:ec:
         d5:e2:4f:24:56:8d:55:a1:47:02:97:85:2c:bc:7a:64:3a:f0:
         69:82:ae:3e:71:50:f9:df:83:d2:07:40:33:ba:84:a8:dc:71:
         cc:66:45:2f:d5:ce:e5:45:19:57:3e:4e:60:4a:8e:a8:68:00:
         96:e6:73:eb:aa:79:46:b8:cd:86:fc:72:65:26:ce:58:2f:00:
         df:31:94:8c:06:70:94:75:6a:6f:2d:5a:ff:f2:c0:58:be:81:
         8b:31:cc:8f:90:b3:12:28:77:d1:eb:e7:31:d9:75:a1:69:98:
         65:f0:b0:f4:62:ce:3c:e3:df:52:98:4e:01:ec:c5:26:c0:5a:
         cb:3c:ca:c3:97:dd:44:05:c7:29:5e:2a:05:09:0a:cb:0c:2b:
         e8:eb:95:84:e4:60:9a:9c:35:d1:5d:3a:70:c6:f0:8b:7a:79:
         13:22:4f:4c:8d:ad:d5:23:a5:d2:d7:62:33:c4:ef:60:1e:ca:
         8b:f7:07:82
-----BEGIN CERTIFICATE-----
MIIDPjCCAiagAwIBAgIBAjANBgkqhkiG9w0BAQsFADAWMRQwEgYDVQQDDAtFYXN5
LVJTQSBDQTAeFw0xNjA1MTcxNDQxMjZaFw0yNjA1MTUxNDQxMjZaMBUxEzARBgNV
BAMMCnNlcnZlckZha2UwggEiMA0GCSqGSIb3DQEBAQUAA4IBDwAwggEKAoIBAQC6
aT2VeS9/HLxsBsLpEoqKClboqTCzNibZKDb6rezp8Qpa+0IrusxpKDu/JUFlwAW3
4A0ounyBuU8K7x4DOXrm5KaJVVBJpb1HswuhF/171g7XBAaq1QeI/7nbkCXTiP01
AFm5BCj76WfRD3vizr7S7pXXZBf6oTn70rXh4aYjlVr3IV3lo0bjm8HAPKw1egYZ
XLp4kczws5FbxsCmuNjLUDPjVU2p9BdRfy4OrzvjrJKE3DYQmkkhkeZK7nlldUjk
ENR1UgsJckDqyrhW8xfuBAWmTRPzmWTNPdfxrIQg6hy5OOoi0ZuOq3kdIRQVvoni
4hOlbvZw3ZK6jTFTROcbAgMBAAGjgZcwgZQwCQYDVR0TBAIwADAdBgNVHQ4EFgQU
UxDAeK2+K+A483mfJhyqoWN5ZQAwRgYDVR0jBD8wPYAUYmn+MhV/NY7txG8hv5Ox
pGetpM6hGqQYMBYxFDASBgNVBAMMC0Vhc3ktUlNBIENBggkAk1g3nSp/O28wEwYD
VR0lBAwwCgYIKwYBBQUHAwEwCwYDVR0PBAQDAgWgMA0GCSqGSIb3DQEBCwUAA4IB
AQCToUp2+szH1eWZ8yVhiUYMls9S58ArhUA129aSWnJXoNz9hMTG/d0o+pdFsxE0
yB76pQxSdFHHU0rAGJUlv8nmWv0Ys4sSauzV4k8kVo1VoUcCl4UsvHpkOvBpgq4+
cVD534PSB0AzuoSo3HHMZkUv1c7lRRlXPk5gSo6oaACW5nPrqnlGuM2G/HJlJs5Y
LwDfMZSMBnCUdWpvLVr/8sBYvoGLMcyPkLMSKHfR6+cx2XWhaZhl8LD0Ys48499S
mE4B7MUmwFrLPMrDl91EBccpXioFCQrLDCvo65WE5GCanDXRXTpwxvCLenkTIk9M
ja3VI6XS12IzxO9gHsqL9weC
-----END CERTIFICATE-----
